target datalayout = "e-m:e-p270:32:32-p271:32:32-p272:64:64-i64:64-i128:128-f80:128-n8:16:32:64-S128"
target triple = "x86_64-pc-linux-gnu"

%struct.ASN1_ITEM_st = type { i8, i64, ptr, i64, ptr, i64, ptr }
%struct.ASN1_EXTERN_FUNCS_st = type { ptr, ptr, ptr, ptr, ptr, ptr, ptr }
%struct.ASN1_TEMPLATE_st = type { i64, i64, i64, ptr, ptr }
%struct.ASN1_PRIMITIVE_FUNCS_st = type { ptr, i64, ptr, ptr, ptr, ptr, ptr, ptr }

; Function Attrs: nounwind uwtable
define internal void @asn1_primitive_clear(ptr noundef %0, ptr noundef %1) #0 {
  %3 = alloca ptr, align 8
  %4 = alloca ptr, align 8
  %5 = alloca i32, align 4
  %6 = alloca ptr, align 8
  %7 = alloca i32, align 4
  store ptr %0, ptr %3, align 8, !tbaa !13
  store ptr %1, ptr %4, align 8, !tbaa !6
  call void @llvm.lifetime.start.p0(i64 4, ptr %5) #5
  %8 = load ptr, ptr %4, align 8, !tbaa !6
  %9 = icmp ne ptr %8, null
  br i1 %9, label %10, label %32

10:                                               ; preds = %2
  %11 = load ptr, ptr %4, align 8, !tbaa !6
  %12 = getelementptr inbounds nuw %struct.ASN1_ITEM_st, ptr %11, i32 0, i32 4
  %13 = load ptr, ptr %12, align 8, !tbaa !19
  %14 = icmp ne ptr %13, null
  br i1 %14, label %15, label %32

15:                                               ; preds = %10
  call void @llvm.lifetime.start.p0(i64 8, ptr %6) #5
  %16 = load ptr, ptr %4, align 8, !tbaa !6
  %17 = getelementptr inbounds nuw %struct.ASN1_ITEM_st, ptr %16, i32 0, i32 4
  %18 = load ptr, ptr %17, align 8, !tbaa !19
  store ptr %18, ptr %6, align 8, !tbaa !47
  %19 = load ptr, ptr %6, align 8, !tbaa !47
  %20 = getelementptr inbounds nuw %struct.ASN1_PRIMITIVE_FUNCS_st, ptr %19, i32 0, i32 4
  %21 = load ptr, ptr %20, align 8, !tbaa !62
  %22 = icmp ne ptr %21, null
  br i1 %22, label %23, label %29

23:                                               ; preds = %15
  %24 = load ptr, ptr %6, align 8, !tbaa !47
  %25 = getelementptr inbounds nuw %struct.ASN1_PRIMITIVE_FUNCS_st, ptr %24, i32 0, i32 4
  %26 = load ptr, ptr %25, align 8, !tbaa !62
  %27 = load ptr, ptr %3, align 8, !tbaa !13
  %28 = load ptr, ptr %4, align 8, !tbaa !6
  call void %26(ptr noundef %27, ptr noundef %28)
  br label %31

29:                                               ; preds = %15
  %30 = load ptr, ptr %3, align 8, !tbaa !13
  store ptr null, ptr %30, align 8, !tbaa !11
  br label %31

31:                                               ; preds = %29, %23
  store i32 1, ptr %7, align 4
  call void @llvm.lifetime.end.p0(i64 8, ptr %6) #5
  br label %59

32:                                               ; preds = %10, %2
  %33 = load ptr, ptr %4, align 8, !tbaa !6
  %34 = icmp ne ptr %33, null
  br i1 %34, label %35, label %41

35:                                               ; preds = %32
  %36 = load ptr, ptr %4, align 8, !tbaa !6
  %37 = getelementptr inbounds nuw %struct.ASN1_ITEM_st, ptr %36, i32 0, i32 0
  %38 = load i8, ptr %37, align 8, !tbaa !28
  %39 = sext i8 %38 to i32
  %40 = icmp eq i32 %39, 5
  br i1 %40, label %41, label %42

41:                                               ; preds = %35, %32
  store i32 -1, ptr %5, align 4, !tbaa !15
  br label %47

42:                                               ; preds = %35
  %43 = load ptr, ptr %4, align 8, !tbaa !6
  %44 = getelementptr inbounds nuw %struct.ASN1_ITEM_st, ptr %43, i32 0, i32 1
  %45 = load i64, ptr %44, align 8, !tbaa !51
  %46 = trunc i64 %45 to i32
  store i32 %46, ptr %5, align 4, !tbaa !15
  br label %47

47:                                               ; preds = %42, %41
  %48 = load i32, ptr %5, align 4, !tbaa !15
  %49 = icmp eq i32 %48, 1
  br i1 %49, label %50, label %56

50:                                               ; preds = %47
  %51 = load ptr, ptr %4, align 8, !tbaa !6
  %52 = getelementptr inbounds nuw %struct.ASN1_ITEM_st, ptr %51, i32 0, i32 5
  %53 = load i64, ptr %52, align 8, !tbaa !38
  %54 = trunc i64 %53 to i32
  %55 = load ptr, ptr %3, align 8, !tbaa !13
  store i32 %54, ptr %55, align 4, !tbaa !15
  br label %58

56:                                               ; preds = %47
  %57 = load ptr, ptr %3, align 8, !tbaa !13
  store ptr null, ptr %57, align 8, !tbaa !11
  br label %58

58:                                               ; preds = %56, %50
  store i32 0, ptr %7, align 4
  br label %59

59:                                               ; preds = %58, %31
  call void @llvm.lifetime.end.p0(i64 4, ptr %5) #5
  %60 = load i32, ptr %7, align 4
  switch i32 %60, label %62 [
    i32 0, label %61
    i32 1, label %61
  ]

61:                                               ; preds = %59, %59
  ret void

62:                                               ; preds = %59
  unreachable
}

; Function Attrs: nounwind uwtable
define internal void @asn1_item_clear(ptr noundef %0, ptr noundef %1) #0 {
  %3 = alloca ptr, align 8
  %4 = alloca ptr, align 8
  %5 = alloca ptr, align 8
  store ptr %0, ptr %3, align 8, !tbaa !13
  store ptr %1, ptr %4, align 8, !tbaa !6
  call void @llvm.lifetime.start.p0(i64 8, ptr %5) #5
  %6 = load ptr, ptr %4, align 8, !tbaa !6
  %7 = getelementptr inbounds nuw %struct.ASN1_ITEM_st, ptr %6, i32 0, i32 0
  %8 = load i8, ptr %7, align 8, !tbaa !28
  %9 = sext i8 %8 to i32
  switch i32 %9, label %49 [
    i32 4, label %10
    i32 0, label %30
    i32 5, label %44
    i32 3, label %47
    i32 2, label %47
    i32 1, label %47
    i32 6, label %47
  ]

10:                                               ; preds = %2
  %11 = load ptr, ptr %4, align 8, !tbaa !6
  %12 = getelementptr inbounds nuw %struct.ASN1_ITEM_st, ptr %11, i32 0, i32 4
  %13 = load ptr, ptr %12, align 8, !tbaa !19
  store ptr %13, ptr %5, align 8, !tbaa !29
  %14 = load ptr, ptr %5, align 8, !tbaa !29
  %15 = icmp ne ptr %14, null
  br i1 %15, label %16, label %27

16:                                               ; preds = %10
  %17 = load ptr, ptr %5, align 8, !tbaa !29
  %18 = getelementptr inbounds nuw %struct.ASN1_EXTERN_FUNCS_st, ptr %17, i32 0, i32 3
  %19 = load ptr, ptr %18, align 8, !tbaa !61
  %20 = icmp ne ptr %19, null
  br i1 %20, label %21, label %27

21:                                               ; preds = %16
  %22 = load ptr, ptr %5, align 8, !tbaa !29
  %23 = getelementptr inbounds nuw %struct.ASN1_EXTERN_FUNCS_st, ptr %22, i32 0, i32 3
  %24 = load ptr, ptr %23, align 8, !tbaa !61
  %25 = load ptr, ptr %3, align 8, !tbaa !13
  %26 = load ptr, ptr %4, align 8, !tbaa !6
  call void %24(ptr noundef %25, ptr noundef %26)
  br label %29

27:                                               ; preds = %16, %10
  %28 = load ptr, ptr %3, align 8, !tbaa !13
  store ptr null, ptr %28, align 8, !tbaa !11
  br label %29

29:                                               ; preds = %27, %21
  br label %49

30:                                               ; preds = %2
  %31 = load ptr, ptr %4, align 8, !tbaa !6
  %32 = getelementptr inbounds nuw %struct.ASN1_ITEM_st, ptr %31, i32 0, i32 2
  %33 = load ptr, ptr %32, align 8, !tbaa !37
  %34 = icmp ne ptr %33, null
  br i1 %34, label %35, label %40

35:                                               ; preds = %30
  %36 = load ptr, ptr %3, align 8, !tbaa !13
  %37 = load ptr, ptr %4, align 8, !tbaa !6
  %38 = getelementptr inbounds nuw %struct.ASN1_ITEM_st, ptr %37, i32 0, i32 2
  %39 = load ptr, ptr %38, align 8, !tbaa !37
  call void @asn1_template_clear(ptr noundef %36, ptr noundef %39)
  br label %43

40:                                               ; preds = %30
  %41 = load ptr, ptr %3, align 8, !tbaa !13
  %42 = load ptr, ptr %4, align 8, !tbaa !6
  call void @asn1_primitive_clear(ptr noundef %41, ptr noundef %42)
  br label %43

43:                                               ; preds = %40, %35
  br label %49

44:                                               ; preds = %2
  %45 = load ptr, ptr %3, align 8, !tbaa !13
  %46 = load ptr, ptr %4, align 8, !tbaa !6
  call void @asn1_primitive_clear(ptr noundef %45, ptr noundef %46)
  br label %49

47:                                               ; preds = %2, %2, %2, %2
  %48 = load ptr, ptr %3, align 8, !tbaa !13
  store ptr null, ptr %48, align 8, !tbaa !11
  br label %49

49:                                               ; preds = %2, %47, %44, %43, %29
  call void @llvm.lifetime.end.p0(i64 8, ptr %5) #5
  ret void
}

; Function Attrs: nounwind uwtable
define internal void @asn1_template_clear(ptr noundef %0, ptr noundef %1) #0 {
  %3 = alloca ptr, align 8
  %4 = alloca ptr, align 8
  store ptr %0, ptr %3, align 8, !tbaa !13
  store ptr %1, ptr %4, align 8, !tbaa !17
  %5 = load ptr, ptr %4, align 8, !tbaa !17
  %6 = getelementptr inbounds nuw %struct.ASN1_TEMPLATE_st, ptr %5, i32 0, i32 0
  %7 = load i64, ptr %6, align 8, !tbaa !44
  %8 = and i64 %7, 774
  %9 = icmp ne i64 %8, 0
  br i1 %9, label %10, label %12

10:                                               ; preds = %2
  %11 = load ptr, ptr %3, align 8, !tbaa !13
  store ptr null, ptr %11, align 8, !tbaa !11
  br label %17

12:                                               ; preds = %2
  %13 = load ptr, ptr %3, align 8, !tbaa !13
  %14 = load ptr, ptr %4, align 8, !tbaa !17
  %15 = getelementptr inbounds nuw %struct.ASN1_TEMPLATE_st, ptr %14, i32 0, i32 4
  %16 = load ptr, ptr %15, align 8, !tbaa !42
  call void @asn1_item_clear(ptr noundef %13, ptr noundef %16)
  br label %17

17:                                               ; preds = %12, %10
  ret void
}