; Function Attrs: nounwind uwtable
define internal fastcc void @asn1_template_clear(ptr noundef %0, ptr noundef readonly captures(none) %1) unnamed_addr #0 {
  br label %tailrecurse

tailrecurse:                                      ; preds = %18, %2
  %.tr6 = phi ptr [ %1, %2 ], [ %20, %18 ]
  %3 = load i64, ptr %.tr6, align 8, !tbaa !28
  %4 = and i64 %3, 774
  %.not = icmp eq i64 %4, 0
  br i1 %.not, label %6, label %5

5:                                                ; preds = %tailrecurse
  store ptr null, ptr %0, align 8, !tbaa !6
  br label %asn1_item_clear.exit

6:                                                ; preds = %tailrecurse
  %7 = getelementptr inbounds nuw i8, ptr %.tr6, i64 32
  %8 = load ptr, ptr %7, align 8, !tbaa !25
  %9 = load i8, ptr %8, align 8, !tbaa !19
  switch i8 %9, label %asn1_item_clear.exit [
    i8 4, label %10
    i8 0, label %18
    i8 5, label %37
    i8 3, label %45
    i8 2, label %45
    i8 1, label %45
    i8 6, label %45
  ]

10:                                               ; preds = %6
  %11 = getelementptr inbounds nuw i8, ptr %8, i64 32
  %12 = load ptr, ptr %11, align 8, !tbaa !11
  %.not18.i = icmp eq ptr %12, null
  br i1 %.not18.i, label %17, label %13

13:                                               ; preds = %10
  %14 = getelementptr inbounds nuw i8, ptr %12, i64 24
  %15 = load ptr, ptr %14, align 8, !tbaa !33
  %.not19.i = icmp eq ptr %15, null
  br i1 %.not19.i, label %17, label %16

16:                                               ; preds = %13
  tail call void %15(ptr noundef %0, ptr noundef nonnull %8) #5
  br label %asn1_item_clear.exit

17:                                               ; preds = %13, %10
  store ptr null, ptr %0, align 8, !tbaa !6
  br label %asn1_item_clear.exit

18:                                               ; preds = %6
  %19 = getelementptr inbounds nuw i8, ptr %8, i64 16
  %20 = load ptr, ptr %19, align 8, !tbaa !24
  %.not.i = icmp eq ptr %20, null
  br i1 %.not.i, label %21, label %tailrecurse

21:                                               ; preds = %18
  %22 = getelementptr inbounds nuw i8, ptr %8, i64 32
  %23 = load ptr, ptr %22, align 8, !tbaa !11
  %.not17.i20 = icmp eq ptr %23, null
  br i1 %.not17.i20, label %.critedge.i, label %24

24:                                               ; preds = %21
  %25 = getelementptr inbounds nuw i8, ptr %23, i64 32
  %26 = load ptr, ptr %25, align 8, !tbaa !34
  %.not18.i21 = icmp eq ptr %26, null
  br i1 %.not18.i21, label %28, label %27

27:                                               ; preds = %24
  tail call void %26(ptr noundef %0, ptr noundef nonnull %8) #5
  br label %asn1_item_clear.exit

28:                                               ; preds = %24
  store ptr null, ptr %0, align 8, !tbaa !6
  br label %asn1_item_clear.exit

.critedge.i:                                      ; preds = %21
  %29 = getelementptr inbounds nuw i8, ptr %8, i64 8
  %30 = load i64, ptr %29, align 8, !tbaa !36
  %31 = and i64 %30, 4294967295
  %32 = icmp eq i64 %31, 1
  br i1 %32, label %33, label %.critedge19.i22

33:                                               ; preds = %.critedge.i
  %34 = getelementptr inbounds nuw i8, ptr %8, i64 40
  %35 = load i64, ptr %34, align 8, !tbaa !29
  %36 = trunc i64 %35 to i32
  store i32 %36, ptr %0, align 4, !tbaa !37
  br label %asn1_item_clear.exit

.critedge19.i22:                                  ; preds = %.critedge.i
  store ptr null, ptr %0, align 8, !tbaa !6
  br label %asn1_item_clear.exit

37:                                               ; preds = %6
  %38 = getelementptr inbounds nuw i8, ptr %8, i64 32
  %39 = load ptr, ptr %38, align 8, !tbaa !11
  %.not17.i = icmp eq ptr %39, null
  br i1 %.not17.i, label %.critedge19.i, label %40

40:                                               ; preds = %37
  %41 = getelementptr inbounds nuw i8, ptr %39, i64 32
  %42 = load ptr, ptr %41, align 8, !tbaa !34
  %.not18.i5 = icmp eq ptr %42, null
  br i1 %.not18.i5, label %44, label %43

43:                                               ; preds = %40
  tail call void %42(ptr noundef %0, ptr noundef nonnull %8) #5
  br label %asn1_item_clear.exit

44:                                               ; preds = %40
  store ptr null, ptr %0, align 8, !tbaa !6
  br label %asn1_item_clear.exit

.critedge19.i:                                    ; preds = %37
  store ptr null, ptr %0, align 8, !tbaa !6
  br label %asn1_item_clear.exit

45:                                               ; preds = %6, %6, %6, %6
  store ptr null, ptr %0, align 8, !tbaa !6
  br label %asn1_item_clear.exit

asn1_item_clear.exit:                             ; preds = %6, %.critedge19.i22, %33, %28, %27, %45, %17, %16, %43, %44, %.critedge19.i, %5
  ret void
}